target datalayout = "e-m:e-p270:32:32-p271:32:32-p272:64:64-i64:64-i128:128-f80:128-n8:16:32:64-S128"
target triple = "x86_64-pc-linux-gnu"

@.str.1 = private unnamed_addr constant [1 x i8] zeroinitializer, align 1
@.str.5 = private unnamed_addr constant [4 x i8] c"%*s\00", align 1
@.str.6 = private unnamed_addr constant [6 x i8] c"%02X:\00", align 1
@.str.7 = private unnamed_addr constant [2 x i8] c"\0A\00", align 1
@.str.8 = private unnamed_addr constant [5 x i8] c"%02X\00", align 1

; Function Attrs: nounwind uwtable
define i32 @BIO_hex_string(ptr noundef %0, i32 noundef %1, i32 noundef %2, ptr noundef %3, i32 noundef %4) #0 {
  %6 = alloca i32, align 4
  %7 = alloca ptr, align 8
  %8 = alloca i32, align 4
  %9 = alloca i32, align 4
  %10 = alloca ptr, align 8
  %11 = alloca i32, align 4
  %12 = alloca ptr, align 8
  %13 = alloca i32, align 4
  %14 = alloca i32, align 4
  %15 = alloca i32, align 4
  store ptr %0, ptr %7, align 8, !tbaa !20
  store i32 %1, ptr %8, align 4, !tbaa !7
  store i32 %2, ptr %9, align 4, !tbaa !7
  store ptr %3, ptr %10, align 8, !tbaa !3
  store i32 %4, ptr %11, align 4, !tbaa !7
  call void @llvm.lifetime.start.p0(i64 8, ptr %12) #4
  %16 = load ptr, ptr %10, align 8, !tbaa !3
  store ptr %16, ptr %12, align 8, !tbaa !9
  call void @llvm.lifetime.start.p0(i64 4, ptr %13) #4
  call void @llvm.lifetime.start.p0(i64 4, ptr %14) #4
  store i32 0, ptr %14, align 4, !tbaa !7
  %17 = load i32, ptr %11, align 4, !tbaa !7
  %18 = icmp slt i32 %17, 1
  br i1 %18, label %19, label %20

19:                                               ; preds = %5
  store i32 1, ptr %6, align 4
  store i32 1, ptr %15, align 4
  br label %76

20:                                               ; preds = %5
  store i32 0, ptr %13, align 4, !tbaa !7
  br label %21

21:                                               ; preds = %53, %20
  %22 = load i32, ptr %13, align 4, !tbaa !7
  %23 = load i32, ptr %11, align 4, !tbaa !7
  %24 = sub nsw i32 %23, 1
  %25 = icmp slt i32 %22, %24
  br i1 %25, label %26, label %56

26:                                               ; preds = %21
  %27 = load i32, ptr %13, align 4, !tbaa !7
  %28 = icmp ne i32 %27, 0
  br i1 %28, label %29, label %36

29:                                               ; preds = %26
  %30 = load i32, ptr %14, align 4, !tbaa !7
  %31 = icmp ne i32 %30, 0
  br i1 %31, label %36, label %32

32:                                               ; preds = %29
  %33 = load ptr, ptr %7, align 8, !tbaa !20
  %34 = load i32, ptr %8, align 4, !tbaa !7
  %35 = call i32 (ptr, ptr, ...) @BIO_printf(ptr noundef %33, ptr noundef @.str.5, i32 noundef %34, ptr noundef @.str.1)
  br label %36

36:                                               ; preds = %32, %29, %26
  %37 = load ptr, ptr %7, align 8, !tbaa !20
  %38 = load ptr, ptr %12, align 8, !tbaa !9
  %39 = load i32, ptr %13, align 4, !tbaa !7
  %40 = sext i32 %39 to i64
  %41 = getelementptr inbounds i8, ptr %38, i64 %40
  %42 = load i8, ptr %41, align 1, !tbaa !11
  %43 = zext i8 %42 to i32
  %44 = call i32 (ptr, ptr, ...) @BIO_printf(ptr noundef %37, ptr noundef @.str.6, i32 noundef %43)
  %45 = load i32, ptr %14, align 4, !tbaa !7
  %46 = add nsw i32 %45, 1
  store i32 %46, ptr %14, align 4, !tbaa !7
  %47 = load i32, ptr %9, align 4, !tbaa !7
  %48 = icmp sge i32 %46, %47
  br i1 %48, label %49, label %52

49:                                               ; preds = %36
  store i32 0, ptr %14, align 4, !tbaa !7
  %50 = load ptr, ptr %7, align 8, !tbaa !20
  %51 = call i32 (ptr, ptr, ...) @BIO_printf(ptr noundef %50, ptr noundef @.str.7)
  br label %52

52:                                               ; preds = %49, %36
  br label %53

53:                                               ; preds = %52
  %54 = load i32, ptr %13, align 4, !tbaa !7
  %55 = add nsw i32 %54, 1
  store i32 %55, ptr %13, align 4, !tbaa !7
  br label %21, !llvm.loop !22

56:                                               ; preds = %21
  %57 = load i32, ptr %13, align 4, !tbaa !7
  %58 = icmp ne i32 %57, 0
  br i1 %58, label %59, label %66

59:                                               ; preds = %56
  %60 = load i32, ptr %14, align 4, !tbaa !7
  %61 = icmp ne i32 %60, 0
  br i1 %61, label %66, label %62

62:                                               ; preds = %59
  %63 = load ptr, ptr %7, align 8, !tbaa !20
  %64 = load i32, ptr %8, align 4, !tbaa !7
  %65 = call i32 (ptr, ptr, ...) @BIO_printf(ptr noundef %63, ptr noundef @.str.5, i32 noundef %64, ptr noundef @.str.1)
  br label %66

66:                                               ; preds = %62, %59, %56
  %67 = load ptr, ptr %7, align 8, !tbaa !20
  %68 = load ptr, ptr %12, align 8, !tbaa !9
  %69 = load i32, ptr %11, align 4, !tbaa !7
  %70 = sub nsw i32 %69, 1
  %71 = sext i32 %70 to i64
  %72 = getelementptr inbounds i8, ptr %68, i64 %71
  %73 = load i8, ptr %72, align 1, !tbaa !11
  %74 = zext i8 %73 to i32
  %75 = call i32 (ptr, ptr, ...) @BIO_printf(ptr noundef %67, ptr noundef @.str.8, i32 noundef %74)
  store i32 1, ptr %6, align 4
  store i32 1, ptr %15, align 4
  br label %76

76:                                               ; preds = %66, %19
  call void @llvm.lifetime.end.p0(i64 4, ptr %14) #4
  call void @llvm.lifetime.end.p0(i64 4, ptr %13) #4
  call void @llvm.lifetime.end.p0(i64 8, ptr %12) #4
  %77 = load i32, ptr %6, align 4
  ret i32 %77
}