; Function Attrs: nounwind uwtable
define noundef i32 @BIO_hex_string(ptr noundef %0, i32 noundef %1, i32 noundef %2, ptr noundef readonly captures(none) %3, i32 noundef %4) local_unnamed_addr #0 {
  %6 = icmp slt i32 %4, 1
  br i1 %6, label %28, label %.preheader

.preheader:                                       ; preds = %5
  %7 = add nsw i32 %4, -1
  %.not34 = icmp eq i32 %4, 1
  br i1 %.not34, label %._crit_edge.thread, label %.lr.ph.preheader

.lr.ph.preheader:                                 ; preds = %.preheader
  %wide.trip.count = zext nneg i32 %7 to i64
  br label %.lr.ph

.lr.ph:                                           ; preds = %.lr.ph.preheader, %20
  %indvars.iv = phi i64 [ 0, %.lr.ph.preheader ], [ %indvars.iv.next, %20 ]
  %.031 = phi i32 [ 0, %.lr.ph.preheader ], [ %.1, %20 ]
  %8 = icmp eq i64 %indvars.iv, 0
  %9 = icmp ne i32 %.031, 0
  %or.cond = or i1 %8, %9
  br i1 %or.cond, label %12, label %10

10:                                               ; preds = %.lr.ph
  %11 = tail call i32 (ptr, ptr, ...) @BIO_printf(ptr noundef %0, ptr noundef nonnull @.str.5, i32 noundef %1, ptr noundef nonnull @.str.1) #7
  br label %12

12:                                               ; preds = %10, %.lr.ph
  %13 = getelementptr inbounds nuw i8, ptr %3, i64 %indvars.iv
  %14 = load i8, ptr %13, align 1, !tbaa !3
  %15 = zext i8 %14 to i32
  %16 = tail call i32 (ptr, ptr, ...) @BIO_printf(ptr noundef %0, ptr noundef nonnull @.str.6, i32 noundef %15) #7
  %17 = add nsw i32 %.031, 1
  %.not = icmp slt i32 %17, %2
  br i1 %.not, label %20, label %18

18:                                               ; preds = %12
  %19 = tail call i32 (ptr, ptr, ...) @BIO_printf(ptr noundef %0, ptr noundef nonnull @.str.7) #7
  br label %20

20:                                               ; preds = %12, %18
  %.1 = phi i32 [ 0, %18 ], [ %17, %12 ]
  %indvars.iv.next = add nuw nsw i64 %indvars.iv, 1
  %exitcond.not = icmp eq i64 %indvars.iv.next, %wide.trip.count
  br i1 %exitcond.not, label %._crit_edge, label %.lr.ph, !llvm.loop !10

._crit_edge:                                      ; preds = %20
  %.not38 = icmp eq i32 %.1, 0
  br i1 %.not38, label %21, label %._crit_edge.thread

21:                                               ; preds = %._crit_edge
  %22 = tail call i32 (ptr, ptr, ...) @BIO_printf(ptr noundef %0, ptr noundef nonnull @.str.5, i32 noundef %1, ptr noundef nonnull @.str.1) #7
  br label %._crit_edge.thread

._crit_edge.thread:                               ; preds = %.preheader, %21, %._crit_edge
  %23 = zext nneg i32 %7 to i64
  %24 = getelementptr inbounds nuw i8, ptr %3, i64 %23
  %25 = load i8, ptr %24, align 1, !tbaa !3
  %26 = zext i8 %25 to i32
  %27 = tail call i32 (ptr, ptr, ...) @BIO_printf(ptr noundef %0, ptr noundef nonnull @.str.8, i32 noundef %26) #7
  br label %28

28:                                               ; preds = %5, %._crit_edge.thread
  ret i32 1
}